target datalayout = "e-m:e-p270:32:32-p271:32:32-p272:64:64-i64:64-i128:128-f80:128-n8:16:32:64-S128"
target triple = "x86_64-pc-linux-gnu"

%"class.pybind11::handle" = type { ptr }
%"class.std::vector.39" = type { %"struct.std::_Vector_base.40" }
%"struct.std::_Vector_base.40" = type { %"struct.std::_Vector_base<const char *, std::allocator<const char *>>::_Vector_impl" }
%"struct.std::_Vector_base<const char *, std::allocator<const char *>>::_Vector_impl" = type { %"struct.std::_Vector_base<const char *, std::allocator<const char *>>::_Vector_impl_data" }
%"struct.std::_Vector_base<const char *, std::allocator<const char *>>::_Vector_impl_data" = type { ptr, ptr, ptr }
%class.anon.49 = type { %"class.std::vector.39" }
%"struct.pybind11::detail::function_record" = type <{ ptr, ptr, ptr, %"class.std::vector.252", ptr, [3 x ptr], ptr, i8, i16, i8, i16, i16, i16, [6 x i8], ptr, %"class.pybind11::handle", %"class.pybind11::handle", ptr }>
%"class.std::vector.252" = type { %"struct.std::_Vector_base.253" }
%"struct.std::_Vector_base.253" = type { %"struct.std::_Vector_base<pybind11::detail::argument_record, std::allocator<pybind11::detail::argument_record>>::_Vector_impl" }
%"struct.std::_Vector_base<pybind11::detail::argument_record, std::allocator<pybind11::detail::argument_record>>::_Vector_impl" = type { %"struct.std::_Vector_base<pybind11::detail::argument_record, std::allocator<pybind11::detail::argument_record>>::_Vector_impl_data" }
%"struct.std::_Vector_base<pybind11::detail::argument_record, std::allocator<pybind11::detail::argument_record>>::_Vector_impl_data" = type { ptr, ptr, ptr }
%class.anon.722 = type { i8 }
%struct.capture.721 = type { %class.anon.49 }

; Function Attrs: mustprogress nounwind uwtable
define linkonce_odr void @_ZNSt15__new_allocatorIPKcED2Ev(ptr noundef nonnull align 1 dereferenceable(1) %0) unnamed_addr #0 comdat align 2 {
  %2 = alloca ptr, align 8
  store ptr %0, ptr %2, align 8
  ret void
}

; Function Attrs: mustprogress nounwind uwtable
define linkonce_odr void @_ZNSt15__new_allocatorIPKcE10deallocateEPS1_m(ptr noundef nonnull align 1 dereferenceable(1) %0, ptr noundef %1, i64 noundef %2) #0 comdat align 2 {
  %4 = alloca ptr, align 8
  %5 = alloca ptr, align 8
  %6 = alloca i64, align 8
  store ptr %0, ptr %4, align 8
  store ptr %1, ptr %5, align 8
  store i64 %2, ptr %6, align 8
  %7 = load ptr, ptr %5, align 8
  call void @_ZdlPv(ptr noundef %7) #23
  ret void
}

; Function Attrs: mustprogress nounwind uwtable
define linkonce_odr void @_ZNSaIPKcED2Ev(ptr noundef nonnull align 1 dereferenceable(1) %0) unnamed_addr #0 comdat align 2 {
  %2 = alloca ptr, align 8
  store ptr %0, ptr %2, align 8
  %3 = load ptr, ptr %2, align 8
  call void @_ZNSt15__new_allocatorIPKcED2Ev(ptr noundef nonnull align 1 dereferenceable(1) %3) #16
  ret void
}

; Function Attrs: mustprogress uwtable
define linkonce_odr void @_ZNSt16allocator_traitsISaIPKcEE10deallocateERS2_PS1_m(ptr noundef nonnull align 1 dereferenceable(1) %0, ptr noundef %1, i64 noundef %2) #1 comdat align 2 {
  %4 = alloca ptr, align 8
  %5 = alloca ptr, align 8
  %6 = alloca i64, align 8
  store ptr %0, ptr %4, align 8
  store ptr %1, ptr %5, align 8
  store i64 %2, ptr %6, align 8
  %7 = load ptr, ptr %4, align 8
  %8 = load ptr, ptr %5, align 8
  %9 = load i64, ptr %6, align 8
  call void @_ZNSt15__new_allocatorIPKcE10deallocateEPS1_m(ptr noundef nonnull align 1 dereferenceable(1) %7, ptr noundef %8, i64 noundef %9)
  ret void
}

; Function Attrs: mustprogress nounwind uwtable
define linkonce_odr void @_ZNSt12_Destroy_auxILb1EE9__destroyIPPKcEEvT_S5_(ptr noundef %0, ptr noundef %1) #0 comdat align 2 {
  %3 = alloca ptr, align 8
  %4 = alloca ptr, align 8
  store ptr %0, ptr %3, align 8
  store ptr %1, ptr %4, align 8
  ret void
}

; Function Attrs: mustprogress nounwind uwtable
define linkonce_odr void @_ZNSt12_Vector_baseIPKcSaIS1_EE12_Vector_implD2Ev(ptr noundef nonnull align 8 dereferenceable(24) %0) unnamed_addr #0 comdat align 2 {
  %2 = alloca ptr, align 8
  store ptr %0, ptr %2, align 8
  %3 = load ptr, ptr %2, align 8
  call void @_ZNSaIPKcED2Ev(ptr noundef nonnull align 1 dereferenceable(1) %3) #16
  ret void
}

; Function Attrs: mustprogress uwtable
define linkonce_odr void @_ZNSt12_Vector_baseIPKcSaIS1_EE13_M_deallocateEPS1_m(ptr noundef nonnull align 8 dereferenceable(24) %0, ptr noundef %1, i64 noundef %2) #1 comdat align 2 {
  %4 = alloca ptr, align 8
  %5 = alloca ptr, align 8
  %6 = alloca i64, align 8
  store ptr %0, ptr %4, align 8
  store ptr %1, ptr %5, align 8
  store i64 %2, ptr %6, align 8
  %7 = load ptr, ptr %4, align 8
  %8 = load ptr, ptr %5, align 8
  %9 = icmp ne ptr %8, null
  br i1 %9, label %10, label %14

10:                                               ; preds = %3
  %11 = getelementptr inbounds %"struct.std::_Vector_base.40", ptr %7, i32 0, i32 0
  %12 = load ptr, ptr %5, align 8
  %13 = load i64, ptr %6, align 8
  call void @_ZNSt16allocator_traitsISaIPKcEE10deallocateERS2_PS1_m(ptr noundef nonnull align 1 dereferenceable(1) %11, ptr noundef %12, i64 noundef %13)
  br label %14

14:                                               ; preds = %10, %3
  ret void
}

; Function Attrs: mustprogress uwtable
define linkonce_odr void @_ZSt8_DestroyIPPKcEvT_S3_(ptr noundef %0, ptr noundef %1) #1 comdat {
  %3 = alloca ptr, align 8
  %4 = alloca ptr, align 8
  store ptr %0, ptr %3, align 8
  store ptr %1, ptr %4, align 8
  %5 = load ptr, ptr %3, align 8
  %6 = load ptr, ptr %4, align 8
  call void @_ZNSt12_Destroy_auxILb1EE9__destroyIPPKcEEvT_S5_(ptr noundef %5, ptr noundef %6)
  ret void
}

; Function Attrs: noreturn nounwind uwtable
define linkonce_odr hidden void @__clang_call_terminate(ptr noundef %0) #2 comdat {
  %2 = call ptr @__cxa_begin_catch(ptr %0) #16
  call void @_ZSt9terminatev() #21
  unreachable
}

; Function Attrs: mustprogress nounwind uwtable
define linkonce_odr void @_ZNSt12_Vector_baseIPKcSaIS1_EED2Ev(ptr noundef nonnull align 8 dereferenceable(24) %0) unnamed_addr #0 comdat align 2 personality ptr @__gxx_personality_v0 {
  %2 = alloca ptr, align 8
  store ptr %0, ptr %2, align 8
  %3 = load ptr, ptr %2, align 8
  %4 = getelementptr inbounds %"struct.std::_Vector_base.40", ptr %3, i32 0, i32 0
  %5 = getelementptr inbounds %"struct.std::_Vector_base<const char *, std::allocator<const char *>>::_Vector_impl_data", ptr %4, i32 0, i32 0
  %6 = load ptr, ptr %5, align 8
  %7 = getelementptr inbounds %"struct.std::_Vector_base.40", ptr %3, i32 0, i32 0
  %8 = getelementptr inbounds %"struct.std::_Vector_base<const char *, std::allocator<const char *>>::_Vector_impl_data", ptr %7, i32 0, i32 2
  %9 = load ptr, ptr %8, align 8
  %10 = getelementptr inbounds %"struct.std::_Vector_base.40", ptr %3, i32 0, i32 0
  %11 = getelementptr inbounds %"struct.std::_Vector_base<const char *, std::allocator<const char *>>::_Vector_impl_data", ptr %10, i32 0, i32 0
  %12 = load ptr, ptr %11, align 8
  %13 = ptrtoint ptr %9 to i64
  %14 = ptrtoint ptr %12 to i64
  %15 = sub i64 %13, %14
  %16 = sdiv exact i64 %15, 8
  invoke void @_ZNSt12_Vector_baseIPKcSaIS1_EE13_M_deallocateEPS1_m(ptr noundef nonnull align 8 dereferenceable(24) %3, ptr noundef %6, i64 noundef %16)
          to label %17 unwind label %19

17:                                               ; preds = %1
  %18 = getelementptr inbounds %"struct.std::_Vector_base.40", ptr %3, i32 0, i32 0
  call void @_ZNSt12_Vector_baseIPKcSaIS1_EE12_Vector_implD2Ev(ptr noundef nonnull align 8 dereferenceable(24) %18) #16
  ret void

19:                                               ; preds = %1
  %20 = landingpad { ptr, i32 }
          catch ptr null
  %21 = extractvalue { ptr, i32 } %20, 0
  call void @__clang_call_terminate(ptr %21) #21
  unreachable
}

; Function Attrs: mustprogress uwtable
define linkonce_odr void @_ZSt8_DestroyIPPKcS1_EvT_S3_RSaIT0_E(ptr noundef %0, ptr noundef %1, ptr noundef nonnull align 1 dereferenceable(1) %2) #1 comdat {
  %4 = alloca ptr, align 8
  %5 = alloca ptr, align 8
  %6 = alloca ptr, align 8
  store ptr %0, ptr %4, align 8
  store ptr %1, ptr %5, align 8
  store ptr %2, ptr %6, align 8
  %7 = load ptr, ptr %4, align 8
  %8 = load ptr, ptr %5, align 8
  call void @_ZSt8_DestroyIPPKcEvT_S3_(ptr noundef %7, ptr noundef %8)
  ret void
}

; Function Attrs: mustprogress nounwind uwtable
define linkonce_odr noundef nonnull align 1 dereferenceable(1) ptr @_ZNSt12_Vector_baseIPKcSaIS1_EE19_M_get_Tp_allocatorEv(ptr noundef nonnull align 8 dereferenceable(24) %0) #0 comdat align 2 {
  %2 = alloca ptr, align 8
  store ptr %0, ptr %2, align 8
  %3 = load ptr, ptr %2, align 8
  %4 = getelementptr inbounds %"struct.std::_Vector_base.40", ptr %3, i32 0, i32 0
  ret ptr %4
}

; Function Attrs: mustprogress nounwind uwtable
define linkonce_odr void @_ZNSt6vectorIPKcSaIS1_EED2Ev(ptr noundef nonnull align 8 dereferenceable(24) %0) unnamed_addr #0 comdat align 2 personality ptr @__gxx_personality_v0 {
  %2 = alloca ptr, align 8
  store ptr %0, ptr %2, align 8
  %3 = load ptr, ptr %2, align 8
  %4 = getelementptr inbounds %"struct.std::_Vector_base.40", ptr %3, i32 0, i32 0
  %5 = getelementptr inbounds %"struct.std::_Vector_base<const char *, std::allocator<const char *>>::_Vector_impl_data", ptr %4, i32 0, i32 0
  %6 = load ptr, ptr %5, align 8
  %7 = getelementptr inbounds %"struct.std::_Vector_base.40", ptr %3, i32 0, i32 0
  %8 = getelementptr inbounds %"struct.std::_Vector_base<const char *, std::allocator<const char *>>::_Vector_impl_data", ptr %7, i32 0, i32 1
  %9 = load ptr, ptr %8, align 8
  %10 = call noundef nonnull align 1 dereferenceable(1) ptr @_ZNSt12_Vector_baseIPKcSaIS1_EE19_M_get_Tp_allocatorEv(ptr noundef nonnull align 8 dereferenceable(24) %3) #16
  invoke void @_ZSt8_DestroyIPPKcS1_EvT_S3_RSaIT0_E(ptr noundef %6, ptr noundef %9, ptr noundef nonnull align 1 dereferenceable(1) %10)
          to label %11 unwind label %12

11:                                               ; preds = %1
  call void @_ZNSt12_Vector_baseIPKcSaIS1_EED2Ev(ptr noundef nonnull align 8 dereferenceable(24) %3) #16
  ret void

12:                                               ; preds = %1
  %13 = landingpad { ptr, i32 }
          catch ptr null
  %14 = extractvalue { ptr, i32 } %13, 0
  call void @__clang_call_terminate(ptr %14) #21
  unreachable
}

; Function Attrs: mustprogress nounwind uwtable
define internal void @"_ZZ27test_submodule_numpy_dtypesRN8pybind117module_EEN4$_12D2Ev"(ptr noundef nonnull align 8 dereferenceable(24) %0) unnamed_addr #0 align 2 {
  %2 = alloca ptr, align 8
  store ptr %0, ptr %2, align 8
  %3 = load ptr, ptr %2, align 8
  %4 = getelementptr inbounds %class.anon.49, ptr %3, i32 0, i32 0
  call void @_ZNSt6vectorIPKcSaIS1_EED2Ev(ptr noundef nonnull align 8 dereferenceable(24) %4) #16
  ret void
}

; Function Attrs: mustprogress nounwind uwtable
define internal void @"_ZZN8pybind1112cpp_function10initializeIZ27test_submodule_numpy_dtypesRNS_7module_EE4$_12NS_4listEJEJNS_4nameENS_5scopeENS_7siblingEEEEvOT_PFT0_DpT1_EDpRKT2_EN7captureD2Ev"(ptr noundef nonnull align 8 dereferenceable(24) %0) unnamed_addr #0 align 2 {
  %2 = alloca ptr, align 8
  store ptr %0, ptr %2, align 8
  %3 = load ptr, ptr %2, align 8
  %4 = getelementptr inbounds %struct.capture.721, ptr %3, i32 0, i32 0
  call void @"_ZZ27test_submodule_numpy_dtypesRN8pybind117module_EEN4$_12D2Ev"(ptr noundef nonnull align 8 dereferenceable(24) %4) #16
  ret void
}

; Function Attrs: mustprogress nounwind uwtable
define internal noundef ptr @"_ZSt7launderIZN8pybind1112cpp_function10initializeIZ27test_submodule_numpy_dtypesRNS0_7module_EE4$_12NS0_4listEJEJNS0_4nameENS0_5scopeENS0_7siblingEEEEvOT_PFT0_DpT1_EDpRKT2_E7captureEPSA_SM_"(ptr noundef %0) #0 {
  %2 = alloca ptr, align 8
  store ptr %0, ptr %2, align 8
  %3 = load ptr, ptr %2, align 8
  ret ptr %3
}

; Function Attrs: mustprogress nounwind uwtable
define internal void @"_ZZN8pybind1112cpp_function10initializeIZ27test_submodule_numpy_dtypesRNS_7module_EE4$_12NS_4listEJEJNS_4nameENS_5scopeENS_7siblingEEEEvOT_PFT0_DpT1_EDpRKT2_ENKUlPNS_6detail15function_recordEE_clESM_"(ptr noundef nonnull align 1 dereferenceable(1) %0, ptr noundef %1) #0 align 2 {
  %3 = alloca ptr, align 8
  %4 = alloca ptr, align 8
  %5 = alloca ptr, align 8
  store ptr %0, ptr %3, align 8
  store ptr %1, ptr %4, align 8
  %6 = load ptr, ptr %4, align 8
  %7 = getelementptr inbounds %"struct.pybind11::detail::function_record", ptr %6, i32 0, i32 5
  %8 = call noundef ptr @"_ZSt7launderIZN8pybind1112cpp_function10initializeIZ27test_submodule_numpy_dtypesRNS0_7module_EE4$_12NS0_4listEJEJNS0_4nameENS0_5scopeENS0_7siblingEEEEvOT_PFT0_DpT1_EDpRKT2_E7captureEPSA_SM_"(ptr noundef %7) #16
  store ptr %8, ptr %5, align 8
  %9 = load ptr, ptr %5, align 8
  call void @"_ZZN8pybind1112cpp_function10initializeIZ27test_submodule_numpy_dtypesRNS_7module_EE4$_12NS_4listEJEJNS_4nameENS_5scopeENS_7siblingEEEEvOT_PFT0_DpT1_EDpRKT2_EN7captureD2Ev"(ptr noundef nonnull align 8 dereferenceable(24) %9) #16
  ret void
}

; Function Attrs: mustprogress uwtable
define internal void @"_ZZN8pybind1112cpp_function10initializeIZ27test_submodule_numpy_dtypesRNS_7module_EE4$_12NS_4listEJEJNS_4nameENS_5scopeENS_7siblingEEEEvOT_PFT0_DpT1_EDpRKT2_ENUlPNS_6detail15function_recordEE_8__invokeESM_"(ptr noundef %0) #1 align 2 {
  %2 = alloca ptr, align 8
  %3 = alloca %class.anon.722, align 1
  store ptr %0, ptr %2, align 8
  %4 = load ptr, ptr %2, align 8
  call void @"_ZZN8pybind1112cpp_function10initializeIZ27test_submodule_numpy_dtypesRNS_7module_EE4$_12NS_4listEJEJNS_4nameENS_5scopeENS_7siblingEEEEvOT_PFT0_DpT1_EDpRKT2_ENKUlPNS_6detail15function_recordEE_clESM_"(ptr noundef nonnull align 1 dereferenceable(1) %3, ptr noundef %4)
  ret void
}